; ModuleID = '45/128.c'
source_filename = "45/128.c"
target datalayout = "e-m:e-p270:32:32-p271:32:32-p272:64:64-i64:64-f80:128-n8:16:32:64-S128"
target triple = "x86_64-pc-linux-gnu"

@.str = private unnamed_addr constant [6 x i8] c"%s %s\00", align 1
@.str.1 = private unnamed_addr constant [4 x i8] c"%d\0A\00", align 1

; Function Attrs: noinline nounwind uwtable
define dso_local i32 @main() #0 {
  %1 = alloca i32, align 4
  %2 = alloca i32, align 4
  %3 = alloca i32, align 4
  %4 = alloca i32, align 4
  %5 = alloca i32, align 4
  %6 = alloca i32, align 4
  %7 = alloca i32, align 4
  %8 = alloca [50 x i8], align 16
  %9 = alloca [50 x i8], align 16
  store i32 0, i32* %1, align 4
  %10 = getelementptr inbounds [50 x i8], [50 x i8]* %8, i64 0, i64 0
  %11 = getelementptr inbounds [50 x i8], [50 x i8]* %9, i64 0, i64 0
  %12 = call i32 (i8*, ...) @__isoc99_scanf(i8* getelementptr inbounds ([6 x i8], [6 x i8]* @.str, i64 0, i64 0), i8* %10, i8* %11)
  %13 = getelementptr inbounds [50 x i8], [50 x i8]* %8, i64 0, i64 0
  %14 = call i64 @strlen(i8* %13) #3
  %15 = trunc i64 %14 to i32
  store i32 %15, i32* %6, align 4
  %16 = getelementptr inbounds [50 x i8], [50 x i8]* %9, i64 0, i64 0
  %17 = call i64 @strlen(i8* %16) #3
  %18 = trunc i64 %17 to i32
  store i32 %18, i32* %7, align 4
  store i32 0, i32* %3, align 4
  br label %19

19:                                               ; preds = %68, %0
  %20 = load i32, i32* %3, align 4
  %21 = load i32, i32* %7, align 4
  %22 = icmp slt i32 %20, %21
  br i1 %22, label %23, label %71

23:                                               ; preds = %19
  %24 = getelementptr inbounds [50 x i8], [50 x i8]* %8, i64 0, i64 0
  %25 = load i8, i8* %24, align 16
  %26 = sext i8 %25 to i32
  %27 = load i32, i32* %3, align 4
  %28 = sext i32 %27 to i64
  %29 = getelementptr inbounds [50 x i8], [50 x i8]* %9, i64 0, i64 %28
  %30 = load i8, i8* %29, align 1
  %31 = sext i8 %30 to i32
  %32 = icmp eq i32 %26, %31
  br i1 %32, label %33, label %59

33:                                               ; preds = %23
  store i32 0, i32* %4, align 4
  %34 = load i32, i32* %3, align 4
  store i32 %34, i32* %5, align 4
  store i32 0, i32* %2, align 4
  br label %35

35:                                               ; preds = %55, %33
  %36 = load i32, i32* %2, align 4
  %37 = load i32, i32* %6, align 4
  %38 = icmp slt i32 %36, %37
  br i1 %38, label %39, label %58

39:                                               ; preds = %35
  %40 = load i32, i32* %2, align 4
  %41 = sext i32 %40 to i64
  %42 = getelementptr inbounds [50 x i8], [50 x i8]* %8, i64 0, i64 %41
  %43 = load i8, i8* %42, align 1
  %44 = sext i8 %43 to i32
  %45 = load i32, i32* %3, align 4
  %46 = load i32, i32* %2, align 4
  %47 = add nsw i32 %45, %46
  %48 = sext i32 %47 to i64
  %49 = getelementptr inbounds [50 x i8], [50 x i8]* %9, i64 0, i64 %48
  %50 = load i8, i8* %49, align 1
  %51 = sext i8 %50 to i32
  %52 = icmp ne i32 %44, %51
  br i1 %52, label %53, label %54

53:                                               ; preds = %39
  store i32 1, i32* %4, align 4
  br label %54

54:                                               ; preds = %53, %39
  br label %58

55:                                               ; No predecessors!
  %56 = load i32, i32* %2, align 4
  %57 = add nsw i32 %56, 1
  store i32 %57, i32* %2, align 4
  br label %35

58:                                               ; preds = %54, %35
  br label %59

59:                                               ; preds = %58, %23
  %60 = load i32, i32* %4, align 4
  %61 = icmp eq i32 %60, 1
  br i1 %61, label %62, label %63

62:                                               ; preds = %59
  br label %71

63:                                               ; preds = %59
  %64 = load i32, i32* %4, align 4
  %65 = icmp eq i32 %64, 0
  br i1 %65, label %66, label %67

66:                                               ; preds = %63
  br label %71

67:                                               ; preds = %63
  br label %68

68:                                               ; preds = %67
  %69 = load i32, i32* %3, align 4
  %70 = add nsw i32 %69, 1
  store i32 %70, i32* %3, align 4
  br label %19

71:                                               ; preds = %66, %62, %19
  %72 = load i32, i32* %5, align 4
  %73 = call i32 (i8*, ...) @printf(i8* getelementptr inbounds ([4 x i8], [4 x i8]* @.str.1, i64 0, i64 0), i32 %72)
  ret i32 0
}

declare dso_local i32 @__isoc99_scanf(i8*, ...) #1

; Function Attrs: nounwind readonly
declare dso_local i64 @strlen(i8*) #2

declare dso_local i32 @printf(i8*, ...) #1


!llvm.module.flags = !{!0}
!llvm.ident = !{!1}

!0 = !{i32 1, !"wchar_size", i32 4}
!1 = !{!"clang version 10.0.0-4ubuntu1 "}
